target datalayout = "e-m:e-p270:32:32-p271:32:32-p272:64:64-i64:64-i128:128-f80:128-n8:16:32:64-S128"
target triple = "x86_64-pc-linux-gnu"

%"class.glslang::TInductiveTraverser" = type { %"class.glslang::TIntermTraverser", i64, ptr, i8, %"struct.glslang::TSourceLoc" }
%"class.glslang::TIntermTraverser" = type { ptr, i8, i8, i8, i8, i32, i32, %"class.glslang::TVector" }
%"class.glslang::TVector" = type { %"class.std::vector" }
%"class.std::vector" = type { %"struct.std::_Vector_base" }
%"struct.std::_Vector_base" = type { %"struct.std::_Vector_base<TIntermNode *, glslang::pool_allocator<TIntermNode *>>::_Vector_impl" }
%"struct.std::_Vector_base<TIntermNode *, glslang::pool_allocator<TIntermNode *>>::_Vector_impl" = type { %"class.glslang::pool_allocator.1", %"struct.std::_Vector_base<TIntermNode *, glslang::pool_allocator<TIntermNode *>>::_Vector_impl_data" }
%"class.glslang::pool_allocator.1" = type { ptr }
%"struct.std::_Vector_base<TIntermNode *, glslang::pool_allocator<TIntermNode *>>::_Vector_impl_data" = type { ptr, ptr, ptr }
%"struct.glslang::TSourceLoc" = type { ptr, i32, i32, i32 }
%"struct.glslang::TParameter" = type { ptr, ptr, ptr }
%"class.glslang::TQualifier" = type <{ ptr, i64, i8, [3 x i8], i32, i32, i64, i64, i8, i8, i8, i8, i8, [3 x i8], i32, i8, i8, i8, i8, i32, ptr, i8, i8, [6 x i8] }>
%"class.glslang::TIntermOperator" = type { %"class.glslang::TIntermTyped", i32, i32 }
%"class.glslang::TIntermTyped" = type { %class.TIntermNode, %"class.glslang::TType" }
%class.TIntermNode = type { ptr, %"struct.glslang::TSourceLoc" }
%"class.glslang::TType" = type { ptr, i32, [4 x i8], %"class.glslang::TQualifier", ptr, %union.anon, ptr, ptr, %"struct.glslang::TSampler", ptr, ptr }
%union.anon = type { ptr }
%"struct.glslang::TSampler" = type { i32 }

; Function Attrs: mustprogress nounwind uwtable
define linkonce_odr noundef nonnull align 8 dereferenceable(8) ptr @_ZNKSt6vectorIP11TIntermNodeN7glslang14pool_allocatorIS1_EEEixEm(ptr noundef nonnull align 8 dereferenceable(32) %0, i64 noundef %1) #0 comdat align 2 {
  %3 = alloca ptr, align 8
  %4 = alloca i64, align 8
  store ptr %0, ptr %3, align 8
  store i64 %1, ptr %4, align 8
  %5 = load ptr, ptr %3, align 8
  %6 = getelementptr inbounds %"struct.std::_Vector_base", ptr %5, i32 0, i32 0
  %7 = getelementptr inbounds i8, ptr %6, i64 8
  %8 = getelementptr inbounds %"struct.std::_Vector_base<TIntermNode *, glslang::pool_allocator<TIntermNode *>>::_Vector_impl_data", ptr %7, i32 0, i32 0
  %9 = load ptr, ptr %8, align 8
  %10 = load i64, ptr %4, align 8
  %11 = getelementptr inbounds ptr, ptr %9, i64 %10
  ret ptr %11
}

; Function Attrs: mustprogress nounwind uwtable
define linkonce_odr noundef i64 @_ZNKSt6vectorIP11TIntermNodeN7glslang14pool_allocatorIS1_EEE4sizeEv(ptr noundef nonnull align 8 dereferenceable(32) %0) #0 comdat align 2 {
  %2 = alloca ptr, align 8
  store ptr %0, ptr %2, align 8
  %3 = load ptr, ptr %2, align 8
  %4 = getelementptr inbounds %"struct.std::_Vector_base", ptr %3, i32 0, i32 0
  %5 = getelementptr inbounds i8, ptr %4, i64 8
  %6 = getelementptr inbounds %"struct.std::_Vector_base<TIntermNode *, glslang::pool_allocator<TIntermNode *>>::_Vector_impl_data", ptr %5, i32 0, i32 1
  %7 = load ptr, ptr %6, align 8
  %8 = getelementptr inbounds %"struct.std::_Vector_base", ptr %3, i32 0, i32 0
  %9 = getelementptr inbounds i8, ptr %8, i64 8
  %10 = getelementptr inbounds %"struct.std::_Vector_base<TIntermNode *, glslang::pool_allocator<TIntermNode *>>::_Vector_impl_data", ptr %9, i32 0, i32 0
  %11 = load ptr, ptr %10, align 8
  %12 = ptrtoint ptr %7 to i64
  %13 = ptrtoint ptr %11 to i64
  %14 = sub i64 %12, %13
  %15 = sdiv exact i64 %14, 8
  ret i64 %15
}

; Function Attrs: mustprogress nounwind uwtable
define linkonce_odr noundef i32 @_ZNK7glslang15TIntermOperator5getOpEv(ptr noundef nonnull align 8 dereferenceable(192) %0) #0 comdat align 2 {
  %2 = alloca ptr, align 8
  store ptr %0, ptr %2, align 8
  %3 = load ptr, ptr %2, align 8
  %4 = getelementptr inbounds %"class.glslang::TIntermOperator", ptr %3, i32 0, i32 1
  %5 = load i32, ptr %4, align 8
  ret i32 %5
}

; Function Attrs: mustprogress nounwind uwtable
define noundef zeroext i1 @_ZN7glslang19TInductiveTraverser14visitAggregateENS_6TVisitEPNS_16TIntermAggregateE(ptr noundef nonnull align 8 dereferenceable(104) %0, i32 noundef %1, ptr noundef %2) unnamed_addr #0 align 2 {
  %4 = alloca ptr, align 8
  %5 = alloca i32, align 4
  %6 = alloca ptr, align 8
  %7 = alloca ptr, align 8
  %8 = alloca i32, align 4
  %9 = alloca ptr, align 8
  %10 = alloca ptr, align 8
  store ptr %0, ptr %4, align 8
  store i32 %1, ptr %5, align 4
  store ptr %2, ptr %6, align 8
  %11 = load ptr, ptr %4, align 8
  %12 = load ptr, ptr %6, align 8
  %13 = call noundef i32 @_ZNK7glslang15TIntermOperator5getOpEv(ptr noundef nonnull align 8 dereferenceable(192) %12)
  %14 = icmp eq i32 %13, 4
  br i1 %14, label %15, label %111

15:                                               ; preds = %3
  %16 = load ptr, ptr %6, align 8
  %17 = load ptr, ptr %16, align 8
  %18 = getelementptr inbounds ptr, ptr %17, i64 50
  %19 = load ptr, ptr %18, align 8
  %20 = call noundef nonnull align 8 dereferenceable(32) ptr %19(ptr noundef nonnull align 8 dereferenceable(364) %16)
  store ptr %20, ptr %7, align 8
  store i32 0, ptr %8, align 4
  br label %21

21:                                               ; preds = %107, %15
  %22 = load i32, ptr %8, align 4
  %23 = load ptr, ptr %7, align 8
  %24 = call noundef i64 @_ZNKSt6vectorIP11TIntermNodeN7glslang14pool_allocatorIS1_EEE4sizeEv(ptr noundef nonnull align 8 dereferenceable(32) %23) #5
  %25 = trunc i64 %24 to i32
  %26 = icmp slt i32 %22, %25
  br i1 %26, label %27, label %110

27:                                               ; preds = %21
  %28 = load ptr, ptr %7, align 8
  %29 = load i32, ptr %8, align 4
  %30 = sext i32 %29 to i64
  %31 = call noundef nonnull align 8 dereferenceable(8) ptr @_ZNKSt6vectorIP11TIntermNodeN7glslang14pool_allocatorIS1_EEEixEm(ptr noundef nonnull align 8 dereferenceable(32) %28, i64 noundef %30) #5
  %32 = load ptr, ptr %31, align 8
  %33 = load ptr, ptr %32, align 8
  %34 = getelementptr inbounds ptr, ptr %33, i64 12
  %35 = load ptr, ptr %34, align 8
  %36 = call noundef ptr %35(ptr noundef nonnull align 8 dereferenceable(32) %32)
  %37 = icmp ne ptr %36, null
  br i1 %37, label %38, label %106

38:                                               ; preds = %27
  %39 = load ptr, ptr %7, align 8
  %40 = load i32, ptr %8, align 4
  %41 = sext i32 %40 to i64
  %42 = call noundef nonnull align 8 dereferenceable(8) ptr @_ZNKSt6vectorIP11TIntermNodeN7glslang14pool_allocatorIS1_EEEixEm(ptr noundef nonnull align 8 dereferenceable(32) %39, i64 noundef %41) #5
  %43 = load ptr, ptr %42, align 8
  %44 = load ptr, ptr %43, align 8
  %45 = getelementptr inbounds ptr, ptr %44, i64 12
  %46 = load ptr, ptr %45, align 8
  %47 = call noundef ptr %46(ptr noundef nonnull align 8 dereferenceable(32) %43)
  %48 = load ptr, ptr %47, align 8
  %49 = getelementptr inbounds ptr, ptr %48, i64 48
  %50 = load ptr, ptr %49, align 8
  %51 = call noundef i64 %50(ptr noundef nonnull align 8 dereferenceable(264) %47)
  %52 = getelementptr inbounds %"class.glslang::TInductiveTraverser", ptr %11, i32 0, i32 1
  %53 = load i64, ptr %52, align 8
  %54 = icmp eq i64 %51, %53
  br i1 %54, label %55, label %106

55:                                               ; preds = %38
  %56 = getelementptr inbounds %"class.glslang::TInductiveTraverser", ptr %11, i32 0, i32 2
  %57 = load ptr, ptr %56, align 8
  %58 = load ptr, ptr %6, align 8
  %59 = load ptr, ptr %58, align 8
  %60 = getelementptr inbounds ptr, ptr %59, i64 53
  %61 = load ptr, ptr %60, align 8
  %62 = call noundef nonnull align 8 dereferenceable(40) ptr %61(ptr noundef nonnull align 8 dereferenceable(364) %58)
  %63 = call noundef ptr @_ZN7glslang12TSymbolTable4findERKNSt7__cxx1112basic_stringIcSt11char_traitsIcENS_14pool_allocatorIcEEEEPbSA_Pi(ptr noundef nonnull align 8 dereferenceable(40) %57, ptr noundef nonnull align 8 dereferenceable(40) %62, ptr noundef null, ptr noundef null, ptr noundef null)
  store ptr %63, ptr %9, align 8
  %64 = load ptr, ptr %9, align 8
  %65 = load ptr, ptr %64, align 8
  %66 = getelementptr inbounds ptr, ptr %65, i64 7
  %67 = load ptr, ptr %66, align 8
  %68 = call noundef ptr %67(ptr noundef nonnull align 8 dereferenceable(33) %64)
  %69 = load i32, ptr %8, align 4
  %70 = load ptr, ptr %68, align 8
  %71 = getelementptr inbounds ptr, ptr %70, i64 39
  %72 = load ptr, ptr %71, align 8
  %73 = call noundef nonnull align 8 dereferenceable(24) ptr %72(ptr noundef nonnull align 8 dereferenceable(340) %68, i32 noundef %69)
  %74 = getelementptr inbounds %"struct.glslang::TParameter", ptr %73, i32 0, i32 1
  %75 = load ptr, ptr %74, align 8
  store ptr %75, ptr %10, align 8
  %76 = load ptr, ptr %10, align 8
  %77 = load ptr, ptr %76, align 8
  %78 = getelementptr inbounds ptr, ptr %77, i64 11
  %79 = load ptr, ptr %78, align 8
  %80 = call noundef nonnull align 8 dereferenceable(80) ptr %79(ptr noundef nonnull align 8 dereferenceable(152) %76)
  %81 = getelementptr inbounds %"class.glslang::TQualifier", ptr %80, i32 0, i32 1
  %82 = load i64, ptr %81, align 8
  %83 = and i64 %82, 127
  %84 = trunc i64 %83 to i32
  %85 = icmp eq i32 %84, 17
  br i1 %85, label %97, label %86

86:                                               ; preds = %55
  %87 = load ptr, ptr %10, align 8
  %88 = load ptr, ptr %87, align 8
  %89 = getelementptr inbounds ptr, ptr %88, i64 11
  %90 = load ptr, ptr %89, align 8
  %91 = call noundef nonnull align 8 dereferenceable(80) ptr %90(ptr noundef nonnull align 8 dereferenceable(152) %87)
  %92 = getelementptr inbounds %"class.glslang::TQualifier", ptr %91, i32 0, i32 1
  %93 = load i64, ptr %92, align 8
  %94 = and i64 %93, 127
  %95 = trunc i64 %94 to i32
  %96 = icmp eq i32 %95, 18
  br i1 %96, label %97, label %105

97:                                               ; preds = %86, %55
  %98 = getelementptr inbounds %"class.glslang::TInductiveTraverser", ptr %11, i32 0, i32 3
  store i8 1, ptr %98, align 8
  %99 = load ptr, ptr %6, align 8
  %100 = load ptr, ptr %99, align 8
  %101 = getelementptr inbounds ptr, ptr %100, i64 0
  %102 = load ptr, ptr %101, align 8
  %103 = call noundef nonnull align 8 dereferenceable(24) ptr %102(ptr noundef nonnull align 8 dereferenceable(32) %99)
  %104 = getelementptr inbounds %"class.glslang::TInductiveTraverser", ptr %11, i32 0, i32 4
  call void @llvm.memcpy.p0.p0.i64(ptr align 8 %104, ptr align 8 %103, i64 24, i1 false)
  br label %105

105:                                              ; preds = %97, %86
  br label %106

106:                                              ; preds = %105, %38, %27
  br label %107

107:                                              ; preds = %106
  %108 = load i32, ptr %8, align 4
  %109 = add nsw i32 %108, 1
  store i32 %109, ptr %8, align 4
  br label %21, !llvm.loop !4

110:                                              ; preds = %21
  br label %111

111:                                              ; preds = %110, %3
  ret i1 true
}