; Function Attrs: mustprogress nounwind uwtable
define noundef zeroext i1 @_ZN7glslang19TInductiveTraverser14visitAggregateENS_6TVisitEPNS_16TIntermAggregateE(ptr nocapture noundef nonnull align 8 dereferenceable(104) %0, i32 %1, ptr noundef %2) unnamed_addr #0 align 2 {
  %4 = getelementptr inbounds i8, ptr %2, i64 184
  %5 = load i32, ptr %4, align 8
  %6 = icmp eq i32 %5, 4
  br i1 %6, label %7, label %.loopexit

7:                                                ; preds = %3
  %8 = load ptr, ptr %2, align 8
  %9 = getelementptr inbounds i8, ptr %8, i64 400
  %10 = load ptr, ptr %9, align 8
  %11 = tail call noundef nonnull align 8 dereferenceable(32) ptr %10(ptr noundef nonnull align 8 dereferenceable(364) %2) #6
  %12 = getelementptr inbounds i8, ptr %11, i64 8
  %13 = getelementptr inbounds i8, ptr %11, i64 16
  %14 = load ptr, ptr %13, align 8
  %15 = load ptr, ptr %12, align 8
  %16 = ptrtoint ptr %14 to i64
  %17 = ptrtoint ptr %15 to i64
  %18 = sub i64 %16, %17
  %19 = lshr exact i64 %18, 3
  %20 = trunc i64 %19 to i32
  %21 = icmp sgt i32 %20, 0
  br i1 %21, label %.lr.ph, label %.loopexit

.lr.ph:                                           ; preds = %7
  %22 = getelementptr inbounds i8, ptr %0, i64 56
  %23 = getelementptr inbounds i8, ptr %0, i64 64
  %24 = getelementptr inbounds i8, ptr %0, i64 72
  %25 = getelementptr inbounds i8, ptr %0, i64 80
  br label %26

26:                                               ; preds = %.lr.ph, %87
  %indvars.iv = phi i64 [ 0, %.lr.ph ], [ %indvars.iv.next, %87 ]
  %27 = phi ptr [ %15, %.lr.ph ], [ %89, %87 ]
  %28 = getelementptr inbounds ptr, ptr %27, i64 %indvars.iv
  %29 = load ptr, ptr %28, align 8
  %30 = load ptr, ptr %29, align 8
  %31 = getelementptr inbounds i8, ptr %30, i64 96
  %32 = load ptr, ptr %31, align 8
  %33 = tail call noundef ptr %32(ptr noundef nonnull align 8 dereferenceable(32) %29) #6
  %.not = icmp eq ptr %33, null
  br i1 %.not, label %87, label %34

34:                                               ; preds = %26
  %35 = load ptr, ptr %12, align 8
  %36 = getelementptr inbounds ptr, ptr %35, i64 %indvars.iv
  %37 = load ptr, ptr %36, align 8
  %38 = load ptr, ptr %37, align 8
  %39 = getelementptr inbounds i8, ptr %38, i64 96
  %40 = load ptr, ptr %39, align 8
  %41 = tail call noundef ptr %40(ptr noundef nonnull align 8 dereferenceable(32) %37) #6
  %42 = load ptr, ptr %41, align 8
  %43 = getelementptr inbounds i8, ptr %42, i64 384
  %44 = load ptr, ptr %43, align 8
  %45 = tail call noundef i64 %44(ptr noundef nonnull align 8 dereferenceable(264) %41) #6
  %46 = load i64, ptr %22, align 8
  %47 = icmp eq i64 %45, %46
  br i1 %47, label %48, label %87

48:                                               ; preds = %34
  %49 = load ptr, ptr %23, align 8
  %50 = load ptr, ptr %2, align 8
  %51 = getelementptr inbounds i8, ptr %50, i64 424
  %52 = load ptr, ptr %51, align 8
  %53 = tail call noundef nonnull align 8 dereferenceable(40) ptr %52(ptr noundef nonnull align 8 dereferenceable(364) %2) #6
  %54 = tail call noundef ptr @_ZN7glslang12TSymbolTable4findERKNSt7__cxx1112basic_stringIcSt11char_traitsIcENS_14pool_allocatorIcEEEEPbSA_Pi(ptr noundef nonnull align 8 dereferenceable(40) %49, ptr noundef nonnull align 8 dereferenceable(40) %53, ptr noundef null, ptr noundef null, ptr noundef null)
  %55 = load ptr, ptr %54, align 8
  %56 = getelementptr inbounds i8, ptr %55, i64 56
  %57 = load ptr, ptr %56, align 8
  %58 = tail call noundef ptr %57(ptr noundef nonnull align 8 dereferenceable(33) %54) #6
  %59 = load ptr, ptr %58, align 8
  %60 = getelementptr inbounds i8, ptr %59, i64 312
  %61 = load ptr, ptr %60, align 8
  %62 = trunc nuw nsw i64 %indvars.iv to i32
  %63 = tail call noundef nonnull align 8 dereferenceable(24) ptr %61(ptr noundef nonnull align 8 dereferenceable(340) %58, i32 noundef %62) #6
  %64 = getelementptr inbounds i8, ptr %63, i64 8
  %65 = load ptr, ptr %64, align 8
  %66 = load ptr, ptr %65, align 8
  %67 = getelementptr inbounds i8, ptr %66, i64 88
  %68 = load ptr, ptr %67, align 8
  %69 = tail call noundef nonnull align 8 dereferenceable(80) ptr %68(ptr noundef nonnull align 8 dereferenceable(152) %65) #6
  %70 = getelementptr inbounds i8, ptr %69, i64 8
  %71 = load i64, ptr %70, align 8
  %72 = and i64 %71, 127
  %73 = icmp eq i64 %72, 17
  br i1 %73, label %83, label %74

74:                                               ; preds = %48
  %75 = load ptr, ptr %65, align 8
  %76 = getelementptr inbounds i8, ptr %75, i64 88
  %77 = load ptr, ptr %76, align 8
  %78 = tail call noundef nonnull align 8 dereferenceable(80) ptr %77(ptr noundef nonnull align 8 dereferenceable(152) %65) #6
  %79 = getelementptr inbounds i8, ptr %78, i64 8
  %80 = load i64, ptr %79, align 8
  %81 = and i64 %80, 127
  %82 = icmp eq i64 %81, 18
  br i1 %82, label %83, label %87

83:                                               ; preds = %74, %48
  store i8 1, ptr %24, align 8
  %84 = load ptr, ptr %2, align 8
  %85 = load ptr, ptr %84, align 8
  %86 = tail call noundef nonnull align 8 dereferenceable(24) ptr %85(ptr noundef nonnull align 8 dereferenceable(32) %2) #6
  tail call void @llvm.memcpy.p0.p0.i64(ptr noundef nonnull align 8 dereferenceable(24) %25, ptr noundef nonnull align 8 dereferenceable(24) %86, i64 24, i1 false)
  br label %87

87:                                               ; preds = %26, %34, %83, %74
  %indvars.iv.next = add nuw nsw i64 %indvars.iv, 1
  %88 = load ptr, ptr %13, align 8
  %89 = load ptr, ptr %12, align 8
  %90 = ptrtoint ptr %88 to i64
  %91 = ptrtoint ptr %89 to i64
  %92 = sub i64 %90, %91
  %sext = shl i64 %92, 29
  %93 = ashr i64 %sext, 32
  %94 = icmp slt i64 %indvars.iv.next, %93
  br i1 %94, label %26, label %.loopexit, !llvm.loop !4

.loopexit:                                        ; preds = %87, %7, %3
  ret i1 true
}